(dp0
S'01966'
p1
(dp2
g1
F0.0
ssS'98200'
p3
(dp4
S'21900'
p5
NsS'01700'
p6
NsS'03200'
p7
NsS'27600'
p8
NsS'46900'
p9
NsS'45800'
p10
NsS'56400'
p11
NsS'43400'
p12
NsS'12400'
p13
NsS'13000'
p14
NsS'28100'
p15
NsS'66000'
p16
NsS'44600'
p17
NsS'20600'
p18
NsS'34400'
p19
NsS'30300'
p20
NsS'62600'
p21
NsS'60100'
p22
NsS'17400'
p23
NsS'08800'
p24
NsS'31500'
p25
NsS'29900'
p26
NsS'29600'
p27
NsS'42200'
p28
NsS'54100'
p29
NsS'74100'
p30
NsS'92800'
p31
NsS'05400'
p32
NsS'14200'
p33
NsS'12500'
p34
NsS'34900'
p35
NsS'98800'
p36
NsS'94500'
p37
NsS'78100'
p38
NsS'19700'
p39
NsS'65000'
p40
NsS'43500'
p41
NsS'54300'
p42
NsS'41100'
p43
NsS'49600'
p44
NsS'40600'
p45
NsS'58000'
p46
NsS'30700'
p47
NsS'46100'
p48
NsS'60000'
p49
NsS'32000'
p50
NsS'80500'
p51
NsS'33300'
p52
NsS'30200'
p53
NsS'84600'
p54
NsS'55000'
p55
NsS'40400'
p56
NsS'17200'
p57
NsS'78600'
p58
NsS'44000'
p59
NsS'10300'
p60
NsS'23400'
p61
NsS'60400'
p62
NsS'92100'
p63
NsS'97800'
p64
NsS'37000'
p65
NsS'32400'
p66
NsS'30000'
p67
NsS'46200'
p68
NsS'45300'
p69
NsS'48700'
p70
NsS'89100'
p71
NsS'54000'
p72
NsS'49700'
p73
NsS'95000'
p74
NsS'92600'
p75
NsS'58500'
p76
NsS'61300'
p77
NsS'56300'
p78
NsS'49400'
p79
NsS'58200'
p80
NsS'53500'
p81
NsS'95600'
p82
NsS'51000'
p83
NsS'55700'
p84
NsS'95800'
p85
NsS'46500'
p86
NsS'20700'
p87
NsS'61500'
p88
NsS'32200'
p89
NsS'62800'
p90
NsS'48800'
p91
NsS'34700'
p92
NsS'02300'
p93
NsS'04000'
p94
NsS'33900'
p95
NsS'42300'
p96
NsS'63300'
p97
NsS'49800'
p98
NsS'14400'
p99
NsS'47500'
p100
NsS'49000'
p101
NsS'12200'
p102
Nss.